target datalayout = "e-m:e-p270:32:32-p271:32:32-p272:64:64-i64:64-i128:128-f80:128-n8:16:32:64-S128"
target triple = "x86_64-pc-linux-gnu"

%"struct.llvm::SimplifyQuery" = type <{ ptr, ptr, ptr, ptr, ptr, ptr, ptr, %"struct.llvm::InstrInfoQuery", i8, [6 x i8] }>
%"struct.llvm::InstrInfoQuery" = type { i8 }

; Function Attrs: mustprogress nounwind uwtable
define internal noundef ptr @_ZL18simplifyFreezeInstPN4llvm5ValueERKNS_13SimplifyQueryE(ptr noundef %0, ptr noundef nonnull align 8 dereferenceable(58) %1) #1 {
  %3 = alloca ptr, align 8
  %4 = alloca ptr, align 8
  %5 = alloca ptr, align 8
  store ptr %0, ptr %4, align 8
  store ptr %1, ptr %5, align 8
  %6 = load ptr, ptr %4, align 8
  %7 = load ptr, ptr %5, align 8
  %8 = getelementptr inbounds nuw %"struct.llvm::SimplifyQuery", ptr %7, i32 0, i32 3
  %9 = load ptr, ptr %8, align 8
  %10 = load ptr, ptr %5, align 8
  %11 = getelementptr inbounds nuw %"struct.llvm::SimplifyQuery", ptr %10, i32 0, i32 4
  %12 = load ptr, ptr %11, align 8
  %13 = load ptr, ptr %5, align 8
  %14 = getelementptr inbounds nuw %"struct.llvm::SimplifyQuery", ptr %13, i32 0, i32 2
  %15 = load ptr, ptr %14, align 8
  %16 = call noundef zeroext i1 @_ZN4llvm32isGuaranteedNotToBeUndefOrPoisonEPKNS_5ValueEPNS_15AssumptionCacheEPKNS_11InstructionEPKNS_13DominatorTreeEj(ptr noundef %6, ptr noundef %9, ptr noundef %12, ptr noundef %15, i32 noundef 0)
  br i1 %16, label %17, label %19

17:                                               ; preds = %2
  %18 = load ptr, ptr %4, align 8
  store ptr %18, ptr %3, align 8
  br label %20

19:                                               ; preds = %2
  store ptr null, ptr %3, align 8
  br label %20

20:                                               ; preds = %19, %17
  %21 = load ptr, ptr %3, align 8
  ret ptr %21
}

; Function Attrs: mustprogress nounwind uwtable
define dso_local noundef ptr @_ZN4llvm18simplifyFreezeInstEPNS_5ValueERKNS_13SimplifyQueryE(ptr noundef %0, ptr noundef nonnull align 8 dereferenceable(58) %1) #1 {
  %3 = alloca ptr, align 8
  %4 = alloca ptr, align 8
  store ptr %0, ptr %3, align 8
  store ptr %1, ptr %4, align 8
  %5 = load ptr, ptr %3, align 8
  %6 = load ptr, ptr %4, align 8
  %7 = call noundef ptr @_ZL18simplifyFreezeInstPN4llvm5ValueERKNS_13SimplifyQueryE(ptr noundef %5, ptr noundef nonnull align 8 dereferenceable(58) %6)
  ret ptr %7
}