; Function Attrs: mustprogress nounwind uwtable
define dso_local noundef ptr @_ZN4llvm18simplifyFreezeInstEPNS_5ValueERKNS_13SimplifyQueryE(ptr noundef %0, ptr nocapture noundef nonnull readonly align 8 dereferenceable(58) %1) local_unnamed_addr #0 {
  %3 = getelementptr inbounds nuw i8, ptr %1, i64 24
  %4 = load ptr, ptr %3, align 8
  %5 = getelementptr inbounds nuw i8, ptr %1, i64 32
  %6 = load ptr, ptr %5, align 8
  %7 = getelementptr inbounds nuw i8, ptr %1, i64 16
  %8 = load ptr, ptr %7, align 8
  %9 = tail call noundef zeroext i1 @_ZN4llvm32isGuaranteedNotToBeUndefOrPoisonEPKNS_5ValueEPNS_15AssumptionCacheEPKNS_11InstructionEPKNS_13DominatorTreeEj(ptr noundef %0, ptr noundef %4, ptr noundef %6, ptr noundef %8, i32 noundef 0) #18
  %..i = select i1 %9, ptr %0, ptr null
  ret ptr %..i
}